; Function Attrs: mustprogress uwtable
define dso_local void @_ZN34btDeformableMultiBodyDynamicsWorld21removeCollisionObjectEP17btCollisionObject(ptr noundef nonnull align 8 dereferenceable(1056) %0, ptr noundef %1) unnamed_addr #4 align 2 {
  %3 = getelementptr inbounds nuw i8, ptr %1, i64 272
  %4 = load i32, ptr %3, align 8, !tbaa !453
  %5 = icmp ne i32 %4, 8
  %.not5 = icmp eq ptr %1, null
  %.not = or i1 %.not5, %5
  br i1 %.not, label %52, label %6

6:                                                ; preds = %2
  %7 = getelementptr inbounds nuw i8, ptr %0, i64 848
  %8 = load ptr, ptr %7, align 8, !tbaa !81
  %9 = load ptr, ptr %8, align 8, !tbaa !50
  %10 = getelementptr inbounds nuw i8, ptr %9, i64 208
  %11 = load ptr, ptr %10, align 8
  %12 = tail call noundef ptr %11(ptr noundef nonnull align 8 dereferenceable(609) %8)
  %13 = getelementptr inbounds nuw i8, ptr %12, i64 4
  %14 = load i32, ptr %13, align 4, !tbaa !439
  %15 = icmp sgt i32 %14, 0
  br i1 %15, label %.lr.ph.i.i, label %_ZN34btDeformableMultiBodyDynamicsWorld19removeSoftBodyForceEP10btSoftBody.exit.i

.lr.ph.i.i:                                       ; preds = %6
  %16 = getelementptr inbounds nuw i8, ptr %12, i64 16
  br label %17

17:                                               ; preds = %17, %.lr.ph.i.i
  %indvars.iv.i.i = phi i64 [ 0, %.lr.ph.i.i ], [ %indvars.iv.next.i.i, %17 ]
  %18 = load ptr, ptr %16, align 8, !tbaa !444
  %19 = getelementptr inbounds nuw ptr, ptr %18, i64 %indvars.iv.i.i
  %20 = load ptr, ptr %19, align 8, !tbaa !445
  %21 = load ptr, ptr %20, align 8, !tbaa !50
  %22 = getelementptr inbounds nuw i8, ptr %21, i64 104
  %23 = load ptr, ptr %22, align 8
  tail call void %23(ptr noundef nonnull align 8 dereferenceable(48) %20, ptr noundef nonnull %1)
  %indvars.iv.next.i.i = add nuw nsw i64 %indvars.iv.i.i, 1
  %24 = load i32, ptr %13, align 4, !tbaa !439
  %25 = sext i32 %24 to i64
  %26 = icmp slt i64 %indvars.iv.next.i.i, %25
  br i1 %26, label %17, label %_ZN34btDeformableMultiBodyDynamicsWorld19removeSoftBodyForceEP10btSoftBody.exit.i, !llvm.loop !451

_ZN34btDeformableMultiBodyDynamicsWorld19removeSoftBodyForceEP10btSoftBody.exit.i: ; preds = %17, %6
  %27 = getelementptr inbounds nuw i8, ptr %0, i64 860
  %28 = load i32, ptr %27, align 4, !tbaa !142
  %29 = icmp sgt i32 %28, 0
  br i1 %29, label %.lr.ph.i.i.i, label %_ZN34btDeformableMultiBodyDynamicsWorld14removeSoftBodyEP10btSoftBody.exit

.lr.ph.i.i.i:                                     ; preds = %_ZN34btDeformableMultiBodyDynamicsWorld19removeSoftBodyForceEP10btSoftBody.exit.i
  %30 = getelementptr inbounds nuw i8, ptr %0, i64 872
  %31 = load ptr, ptr %30, align 8, !tbaa !141
  %wide.trip.count.i.i.i = zext nneg i32 %28 to i64
  br label %32

32:                                               ; preds = %36, %.lr.ph.i.i.i
  %indvars.iv.i.i.i = phi i64 [ 0, %.lr.ph.i.i.i ], [ %indvars.iv.next.i.i.i, %36 ]
  %33 = getelementptr inbounds nuw ptr, ptr %31, i64 %indvars.iv.i.i.i
  %34 = load ptr, ptr %33, align 8, !tbaa !232
  %35 = icmp eq ptr %34, %1
  br i1 %35, label %_ZNK20btAlignedObjectArrayIP10btSoftBodyE16findLinearSearchERKS1_.exit.i.i, label %36

36:                                               ; preds = %32
  %indvars.iv.next.i.i.i = add nuw nsw i64 %indvars.iv.i.i.i, 1
  %exitcond.not.i.i.i = icmp eq i64 %indvars.iv.next.i.i.i, %wide.trip.count.i.i.i
  br i1 %exitcond.not.i.i.i, label %_ZN34btDeformableMultiBodyDynamicsWorld14removeSoftBodyEP10btSoftBody.exit, label %32, !llvm.loop !452

_ZNK20btAlignedObjectArrayIP10btSoftBodyE16findLinearSearchERKS1_.exit.i.i: ; preds = %32
  %37 = trunc nuw nsw i64 %indvars.iv.i.i.i to i32
  %38 = icmp sgt i32 %28, %37
  br i1 %38, label %39, label %_ZN34btDeformableMultiBodyDynamicsWorld14removeSoftBodyEP10btSoftBody.exit

39:                                               ; preds = %_ZNK20btAlignedObjectArrayIP10btSoftBodyE16findLinearSearchERKS1_.exit.i.i
  %40 = add nsw i32 %28, -1
  %sext.i.i = shl i64 %indvars.iv.i.i.i, 32
  %41 = ashr exact i64 %sext.i.i, 29
  %42 = getelementptr inbounds i8, ptr %31, i64 %41
  %43 = load ptr, ptr %42, align 8, !tbaa !232
  %44 = sext i32 %40 to i64
  %45 = getelementptr inbounds ptr, ptr %31, i64 %44
  %46 = load ptr, ptr %45, align 8, !tbaa !232
  store ptr %46, ptr %42, align 8, !tbaa !232
  store ptr %43, ptr %45, align 8, !tbaa !232
  store i32 %40, ptr %27, align 4, !tbaa !142
  br label %_ZN34btDeformableMultiBodyDynamicsWorld14removeSoftBodyEP10btSoftBody.exit

_ZN34btDeformableMultiBodyDynamicsWorld14removeSoftBodyEP10btSoftBody.exit: ; preds = %36, %_ZN34btDeformableMultiBodyDynamicsWorld19removeSoftBodyForceEP10btSoftBody.exit.i, %_ZNK20btAlignedObjectArrayIP10btSoftBodyE16findLinearSearchERKS1_.exit.i.i, %39
  %47 = getelementptr inbounds nuw i8, ptr %0, i64 856
  tail call void @_ZN16btCollisionWorld21removeCollisionObjectEP17btCollisionObject(ptr noundef nonnull align 8 dereferenceable(1056) %0, ptr noundef nonnull %1)
  %48 = load ptr, ptr %7, align 8, !tbaa !81
  %49 = load ptr, ptr %48, align 8, !tbaa !50
  %50 = getelementptr inbounds nuw i8, ptr %49, i64 144
  %51 = load ptr, ptr %50, align 8
  tail call void %51(ptr noundef nonnull align 8 dereferenceable(609) %48, ptr noundef nonnull align 8 dereferenceable(25) %47, float noundef -1.000000e+00)
  br label %53

52:                                               ; preds = %2
  tail call void @_ZN23btDiscreteDynamicsWorld21removeCollisionObjectEP17btCollisionObject(ptr noundef nonnull align 8 dereferenceable(508) %0, ptr noundef nonnull %1)
  br label %53

53:                                               ; preds = %52, %_ZN34btDeformableMultiBodyDynamicsWorld14removeSoftBodyEP10btSoftBody.exit
  ret void
}